; ModuleID = 'source-C-CXX/30/228.c'
source_filename = "source-C-CXX/30/228.c"
target datalayout = "e-m:e-p270:32:32-p271:32:32-p272:64:64-i64:64-f80:128-n8:16:32:64-S128"
target triple = "x86_64-pc-linux-gnu"

%struct.student = type { [20 x i8], [20 x i8], i8, i32, [20 x i8], [20 x i8], %struct.student* }

@.str = private unnamed_addr constant [18 x i8] c"%s %s %c %d %s %s\00", align 1
@.str.1 = private unnamed_addr constant [3 x i8] c"%s\00", align 1
@.str.2 = private unnamed_addr constant [4 x i8] c"end\00", align 1
@.str.3 = private unnamed_addr constant [15 x i8] c"%s %c %d %s %s\00", align 1
@.str.4 = private unnamed_addr constant [19 x i8] c"%s %s %c %d %s %s\0A\00", align 1

; Function Attrs: nofree nounwind sspstrong uwtable
define dso_local %struct.student* @creat() local_unnamed_addr #0 {
  %1 = tail call noalias align 16 dereferenceable_or_null(100) i8* @malloc(i64 100) #4
  %2 = bitcast i8* %1 to %struct.student*
  %3 = getelementptr inbounds %struct.student, %struct.student* %2, i64 0, i32 0, i64 0
  %4 = getelementptr inbounds %struct.student, %struct.student* %2, i64 0, i32 1, i64 0
  %5 = getelementptr inbounds %struct.student, %struct.student* %2, i64 0, i32 2
  %6 = getelementptr inbounds %struct.student, %struct.student* %2, i64 0, i32 3
  %7 = getelementptr inbounds %struct.student, %struct.student* %2, i64 0, i32 4, i64 0
  %8 = getelementptr inbounds %struct.student, %struct.student* %2, i64 0, i32 5, i64 0
  %9 = tail call i32 (i8*, ...) @__isoc99_scanf(i8* getelementptr inbounds ([18 x i8], [18 x i8]* @.str, i64 0, i64 0), i8* %3, i8* nonnull %4, i8* nonnull %5, i32* nonnull %6, i8* nonnull %7, i8* nonnull %8)
  %10 = getelementptr inbounds %struct.student, %struct.student* %2, i64 0, i32 6
  store %struct.student* null, %struct.student** %10, align 8, !tbaa !5
  %11 = tail call noalias align 16 dereferenceable_or_null(100) i8* @malloc(i64 100) #4
  %12 = bitcast i8* %11 to %struct.student*
  %13 = getelementptr inbounds %struct.student, %struct.student* %12, i64 0, i32 0, i64 0
  %14 = tail call i32 (i8*, ...) @__isoc99_scanf(i8* getelementptr inbounds ([3 x i8], [3 x i8]* @.str.1, i64 0, i64 0), i8* %13)
  %15 = tail call i32 @strcmp(i8* noundef nonnull dereferenceable(4) getelementptr inbounds ([4 x i8], [4 x i8]* @.str.2, i64 0, i64 0), i8* noundef nonnull dereferenceable(1) %13) #5
  %16 = icmp eq i32 %15, 0
  br i1 %16, label %36, label %17

17:                                               ; preds = %0, %17
  %18 = phi %struct.student* [ %31, %17 ], [ %12, %0 ]
  %19 = phi i8* [ %30, %17 ], [ %11, %0 ]
  %20 = phi %struct.student* [ %18, %17 ], [ %2, %0 ]
  %21 = getelementptr inbounds %struct.student, %struct.student* %18, i64 0, i32 1, i64 0
  %22 = getelementptr inbounds %struct.student, %struct.student* %18, i64 0, i32 2
  %23 = getelementptr inbounds %struct.student, %struct.student* %18, i64 0, i32 3
  %24 = getelementptr inbounds %struct.student, %struct.student* %18, i64 0, i32 4, i64 0
  %25 = getelementptr inbounds %struct.student, %struct.student* %18, i64 0, i32 5, i64 0
  %26 = tail call i32 (i8*, ...) @__isoc99_scanf(i8* getelementptr inbounds ([15 x i8], [15 x i8]* @.str.3, i64 0, i64 0), i8* nonnull %21, i8* nonnull %22, i32* nonnull %23, i8* nonnull %24, i8* nonnull %25)
  %27 = getelementptr inbounds %struct.student, %struct.student* %18, i64 0, i32 6
  store %struct.student* null, %struct.student** %27, align 8, !tbaa !5
  %28 = getelementptr inbounds %struct.student, %struct.student* %20, i64 0, i32 6
  %29 = bitcast %struct.student** %28 to i8**
  store i8* %19, i8** %29, align 8, !tbaa !5
  %30 = tail call noalias align 16 dereferenceable_or_null(100) i8* @malloc(i64 100) #4
  %31 = bitcast i8* %30 to %struct.student*
  %32 = getelementptr inbounds %struct.student, %struct.student* %31, i64 0, i32 0, i64 0
  %33 = tail call i32 (i8*, ...) @__isoc99_scanf(i8* getelementptr inbounds ([3 x i8], [3 x i8]* @.str.1, i64 0, i64 0), i8* %32)
  %34 = tail call i32 @strcmp(i8* noundef nonnull dereferenceable(4) getelementptr inbounds ([4 x i8], [4 x i8]* @.str.2, i64 0, i64 0), i8* noundef nonnull dereferenceable(1) %32) #5
  %35 = icmp eq i32 %34, 0
  br i1 %35, label %36, label %17

36:                                               ; preds = %17, %0
  ret %struct.student* %2
}

; Function Attrs: inaccessiblememonly mustprogress nofree nounwind willreturn
declare noalias noundef align 16 i8* @malloc(i64 noundef) local_unnamed_addr #1

; Function Attrs: nofree nounwind
declare noundef i32 @__isoc99_scanf(i8* nocapture noundef readonly, ...) local_unnamed_addr #2

; Function Attrs: argmemonly mustprogress nofree nounwind readonly willreturn
declare i32 @strcmp(i8* nocapture, i8* nocapture) local_unnamed_addr #3

; Function Attrs: nofree nounwind sspstrong uwtable
define dso_local void @print(%struct.student* %0) local_unnamed_addr #0 {
  %2 = getelementptr inbounds %struct.student, %struct.student* %0, i64 0, i32 6
  %3 = load %struct.student*, %struct.student** %2, align 8, !tbaa !5
  %4 = icmp eq %struct.student* %3, null
  br i1 %4, label %28, label %5

5:                                                ; preds = %1, %11
  %6 = phi %struct.student* [ %12, %11 ], [ %3, %1 ]
  %7 = phi %struct.student* [ %13, %11 ], [ %0, %1 ]
  %8 = getelementptr inbounds %struct.student, %struct.student* %6, i64 0, i32 6
  %9 = load %struct.student*, %struct.student** %8, align 8, !tbaa !5
  %10 = icmp eq %struct.student* %9, null
  br i1 %10, label %14, label %11

11:                                               ; preds = %5, %14
  %12 = phi %struct.student* [ %9, %5 ], [ %26, %14 ]
  %13 = phi %struct.student* [ %6, %5 ], [ %0, %14 ]
  br label %5, !llvm.loop !11

14:                                               ; preds = %5
  %15 = getelementptr inbounds %struct.student, %struct.student* %6, i64 0, i32 0, i64 0
  %16 = getelementptr inbounds %struct.student, %struct.student* %6, i64 0, i32 1, i64 0
  %17 = getelementptr inbounds %struct.student, %struct.student* %6, i64 0, i32 2
  %18 = load i8, i8* %17, align 8, !tbaa !13
  %19 = sext i8 %18 to i32
  %20 = getelementptr inbounds %struct.student, %struct.student* %6, i64 0, i32 3
  %21 = load i32, i32* %20, align 4, !tbaa !14
  %22 = getelementptr inbounds %struct.student, %struct.student* %6, i64 0, i32 4, i64 0
  %23 = getelementptr inbounds %struct.student, %struct.student* %6, i64 0, i32 5, i64 0
  %24 = tail call i32 (i8*, ...) @printf(i8* nonnull dereferenceable(1) getelementptr inbounds ([19 x i8], [19 x i8]* @.str.4, i64 0, i64 0), i8* nonnull %15, i8* nonnull %16, i32 %19, i32 %21, i8* nonnull %22, i8* nonnull %23)
  %25 = getelementptr inbounds %struct.student, %struct.student* %7, i64 0, i32 6
  store %struct.student* null, %struct.student** %25, align 8, !tbaa !5
  %26 = load %struct.student*, %struct.student** %2, align 8, !tbaa !5
  %27 = icmp eq %struct.student* %26, null
  br i1 %27, label %28, label %11

28:                                               ; preds = %14, %1
  %29 = getelementptr inbounds %struct.student, %struct.student* %0, i64 0, i32 0, i64 0
  %30 = getelementptr inbounds %struct.student, %struct.student* %0, i64 0, i32 1, i64 0
  %31 = getelementptr inbounds %struct.student, %struct.student* %0, i64 0, i32 2
  %32 = load i8, i8* %31, align 8, !tbaa !13
  %33 = sext i8 %32 to i32
  %34 = getelementptr inbounds %struct.student, %struct.student* %0, i64 0, i32 3
  %35 = load i32, i32* %34, align 4, !tbaa !14
  %36 = getelementptr inbounds %struct.student, %struct.student* %0, i64 0, i32 4, i64 0
  %37 = getelementptr inbounds %struct.student, %struct.student* %0, i64 0, i32 5, i64 0
  %38 = tail call i32 (i8*, ...) @printf(i8* nonnull dereferenceable(1) getelementptr inbounds ([19 x i8], [19 x i8]* @.str.4, i64 0, i64 0), i8* %29, i8* nonnull %30, i32 %33, i32 %35, i8* nonnull %36, i8* nonnull %37)
  ret void
}

; Function Attrs: nofree nounwind
declare noundef i32 @printf(i8* nocapture noundef readonly, ...) local_unnamed_addr #2

; Function Attrs: nofree nounwind sspstrong uwtable
define dso_local i32 @main() local_unnamed_addr #0 {
  %1 = tail call %struct.student* @creat()
  %2 = getelementptr inbounds %struct.student, %struct.student* %1, i64 0, i32 6
  %3 = load %struct.student*, %struct.student** %2, align 8, !tbaa !5
  %4 = icmp eq %struct.student* %3, null
  br i1 %4, label %28, label %5

5:                                                ; preds = %0, %11
  %6 = phi %struct.student* [ %12, %11 ], [ %3, %0 ]
  %7 = phi %struct.student* [ %13, %11 ], [ %1, %0 ]
  %8 = getelementptr inbounds %struct.student, %struct.student* %6, i64 0, i32 6
  %9 = load %struct.student*, %struct.student** %8, align 8, !tbaa !5
  %10 = icmp eq %struct.student* %9, null
  br i1 %10, label %14, label %11

11:                                               ; preds = %5, %14
  %12 = phi %struct.student* [ %9, %5 ], [ %26, %14 ]
  %13 = phi %struct.student* [ %6, %5 ], [ %1, %14 ]
  br label %5, !llvm.loop !11

14:                                               ; preds = %5
  %15 = getelementptr inbounds %struct.student, %struct.student* %6, i64 0, i32 0, i64 0
  %16 = getelementptr inbounds %struct.student, %struct.student* %6, i64 0, i32 1, i64 0
  %17 = getelementptr inbounds %struct.student, %struct.student* %6, i64 0, i32 2
  %18 = load i8, i8* %17, align 8, !tbaa !13
  %19 = sext i8 %18 to i32
  %20 = getelementptr inbounds %struct.student, %struct.student* %6, i64 0, i32 3
  %21 = load i32, i32* %20, align 4, !tbaa !14
  %22 = getelementptr inbounds %struct.student, %struct.student* %6, i64 0, i32 4, i64 0
  %23 = getelementptr inbounds %struct.student, %struct.student* %6, i64 0, i32 5, i64 0
  %24 = tail call i32 (i8*, ...) @printf(i8* nonnull dereferenceable(1) getelementptr inbounds ([19 x i8], [19 x i8]* @.str.4, i64 0, i64 0), i8* nonnull %15, i8* nonnull %16, i32 %19, i32 %21, i8* nonnull %22, i8* nonnull %23) #4
  %25 = getelementptr inbounds %struct.student, %struct.student* %7, i64 0, i32 6
  store %struct.student* null, %struct.student** %25, align 8, !tbaa !5
  %26 = load %struct.student*, %struct.student** %2, align 8, !tbaa !5
  %27 = icmp eq %struct.student* %26, null
  br i1 %27, label %28, label %11

28:                                               ; preds = %14, %0
  %29 = getelementptr inbounds %struct.student, %struct.student* %1, i64 0, i32 0, i64 0
  %30 = getelementptr inbounds %struct.student, %struct.student* %1, i64 0, i32 1, i64 0
  %31 = getelementptr inbounds %struct.student, %struct.student* %1, i64 0, i32 2
  %32 = load i8, i8* %31, align 8, !tbaa !13
  %33 = sext i8 %32 to i32
  %34 = getelementptr inbounds %struct.student, %struct.student* %1, i64 0, i32 3
  %35 = load i32, i32* %34, align 4, !tbaa !14
  %36 = getelementptr inbounds %struct.student, %struct.student* %1, i64 0, i32 4, i64 0
  %37 = getelementptr inbounds %struct.student, %struct.student* %1, i64 0, i32 5, i64 0
  %38 = tail call i32 (i8*, ...) @printf(i8* nonnull dereferenceable(1) getelementptr inbounds ([19 x i8], [19 x i8]* @.str.4, i64 0, i64 0), i8* %29, i8* nonnull %30, i32 %33, i32 %35, i8* nonnull %36, i8* nonnull %37) #4
  ret i32 0
}


!llvm.module.flags = !{!0, !1, !2, !3}
!llvm.ident = !{!4}

!0 = !{i32 1, !"wchar_size", i32 4}
!1 = !{i32 7, !"PIC Level", i32 2}
!2 = !{i32 7, !"PIE Level", i32 2}
!3 = !{i32 7, !"uwtable", i32 1}
!4 = !{!"clang version 13.0.0"}
!5 = !{!6, !10, i64 88}
!6 = !{!"student", !7, i64 0, !7, i64 20, !7, i64 40, !9, i64 44, !7, i64 48, !7, i64 68, !10, i64 88}
!7 = !{!"omnipotent char", !8, i64 0}
!8 = !{!"Simple C/C++ TBAA"}
!9 = !{!"int", !7, i64 0}
!10 = !{!"any pointer", !7, i64 0}
!11 = distinct !{!11, !12}
!12 = !{!"llvm.loop.mustprogress"}
!13 = !{!6, !7, i64 40}
!14 = !{!6, !9, i64 44}
